target datalayout = "e-m:e-p270:32:32-p271:32:32-p272:64:64-i64:64-i128:128-f80:128-n8:16:32:64-S128"
target triple = "x86_64-pc-linux-gnu"

%struct.Vec_Int_t_ = type { i32, i32, ptr }
%struct.Abc_Ntk_t_ = type { i32, i32, ptr, ptr, ptr, ptr, ptr, ptr, ptr, ptr, ptr, ptr, ptr, [11 x i32], i32, i32, i32, i32, ptr, i32, ptr, ptr, i32, i32, i32, double, i32, %struct.Vec_Int_t_, ptr, ptr, ptr, ptr, ptr, float, i32, ptr, ptr, ptr, ptr, ptr, ptr, ptr, ptr, ptr, ptr, ptr, ptr, ptr, ptr, ptr, ptr, ptr, ptr, ptr, ptr, ptr }
%struct.Fra_Sec_t_ = type { i32, i32, i32, i32, i32, i32, i32, i32, i32, i32, i32, i32, i32, i32, i32, i32, i32, i32, i32, i32, i32, i32, i32, i32, i32, i32, i32, i32, i32, i32 }

@.str.27 = private unnamed_addr constant [31 x i8] c"Miter computation has failed.\0A\00", align 1
@.str.28 = private unnamed_addr constant [55 x i8] c"Networks are NOT EQUIVALENT after structural hashing.\0A\00", align 1
@.str.29 = private unnamed_addr constant [51 x i8] c"Networks are equivalent after structural hashing.\0A\00", align 1
@.str.30 = private unnamed_addr constant [39 x i8] c"Converting miter into AIG has failed.\0A\00", align 1

; Function Attrs: nounwind uwtable
define i32 @Abc_NtkDarSec(ptr noundef %0, ptr noundef %1, ptr noundef %2) #0 {
  %4 = alloca i32, align 4
  %5 = alloca ptr, align 8
  %6 = alloca ptr, align 8
  %7 = alloca ptr, align 8
  %8 = alloca ptr, align 8
  %9 = alloca ptr, align 8
  %10 = alloca i32, align 4
  store ptr %0, ptr %5, align 8
  store ptr %1, ptr %6, align 8
  store ptr %2, ptr %7, align 8
  %11 = load ptr, ptr %5, align 8
  %12 = load ptr, ptr %6, align 8
  %13 = call ptr @Abc_NtkMiter(ptr noundef %11, ptr noundef %12, i32 noundef 0, i32 noundef 0, i32 noundef 0, i32 noundef 0)
  store ptr %13, ptr %9, align 8
  %14 = load ptr, ptr %9, align 8
  %15 = icmp eq ptr %14, null
  br i1 %15, label %16, label %17

16:                                               ; preds = %3
  call void (i32, ptr, ...) @Abc_Print(i32 noundef 1, ptr noundef @.str.27)
  store i32 -1, ptr %4, align 4
  br label %61

17:                                               ; preds = %3
  %18 = load ptr, ptr %9, align 8
  %19 = call i32 @Abc_NtkMiterIsConstant(ptr noundef %18)
  store i32 %19, ptr %10, align 4
  %20 = load i32, ptr %10, align 4
  %21 = icmp eq i32 %20, 0
  br i1 %21, label %22, label %43

22:                                               ; preds = %17
  call void (i32, ptr, ...) @Abc_Print(i32 noundef 1, ptr noundef @.str.28)
  %23 = load ptr, ptr %9, align 8
  %24 = load ptr, ptr %7, align 8
  %25 = getelementptr inbounds %struct.Fra_Sec_t_, ptr %24, i32 0, i32 2
  %26 = load i32, ptr %25, align 4
  %27 = call ptr @Abc_NtkVerifyGetCleanModel(ptr noundef %23, i32 noundef %26)
  %28 = load ptr, ptr %9, align 8
  %29 = getelementptr inbounds %struct.Abc_Ntk_t_, ptr %28, i32 0, i32 37
  store ptr %27, ptr %29, align 8
  %30 = load ptr, ptr %9, align 8
  %31 = getelementptr inbounds %struct.Abc_Ntk_t_, ptr %30, i32 0, i32 37
  %32 = load ptr, ptr %31, align 8
  %33 = icmp ne ptr %32, null
  br i1 %33, label %34, label %40

34:                                               ; preds = %22
  %35 = load ptr, ptr %9, align 8
  %36 = getelementptr inbounds %struct.Abc_Ntk_t_, ptr %35, i32 0, i32 37
  %37 = load ptr, ptr %36, align 8
  call void @free(ptr noundef %37) #10
  %38 = load ptr, ptr %9, align 8
  %39 = getelementptr inbounds %struct.Abc_Ntk_t_, ptr %38, i32 0, i32 37
  store ptr null, ptr %39, align 8
  br label %41

40:                                               ; preds = %22
  br label %41

41:                                               ; preds = %40, %34
  %42 = load ptr, ptr %9, align 8
  call void @Abc_NtkDelete(ptr noundef %42)
  store i32 0, ptr %4, align 4
  br label %61

43:                                               ; preds = %17
  %44 = load i32, ptr %10, align 4
  %45 = icmp eq i32 %44, 1
  br i1 %45, label %46, label %48

46:                                               ; preds = %43
  %47 = load ptr, ptr %9, align 8
  call void @Abc_NtkDelete(ptr noundef %47)
  call void (i32, ptr, ...) @Abc_Print(i32 noundef 1, ptr noundef @.str.29)
  store i32 1, ptr %4, align 4
  br label %61

48:                                               ; preds = %43
  %49 = load ptr, ptr %9, align 8
  %50 = call ptr @Abc_NtkToDar(ptr noundef %49, i32 noundef 0, i32 noundef 1)
  store ptr %50, ptr %8, align 8
  %51 = load ptr, ptr %9, align 8
  call void @Abc_NtkDelete(ptr noundef %51)
  %52 = load ptr, ptr %8, align 8
  %53 = icmp eq ptr %52, null
  br i1 %53, label %54, label %55

54:                                               ; preds = %48
  call void (i32, ptr, ...) @Abc_Print(i32 noundef 1, ptr noundef @.str.30)
  store i32 -1, ptr %4, align 4
  br label %61

55:                                               ; preds = %48
  %56 = load ptr, ptr %8, align 8
  %57 = load ptr, ptr %7, align 8
  %58 = call i32 @Fra_FraigSec(ptr noundef %56, ptr noundef %57, ptr noundef null)
  store i32 %58, ptr %10, align 4
  %59 = load ptr, ptr %8, align 8
  call void @Aig_ManStop(ptr noundef %59)
  %60 = load i32, ptr %10, align 4
  store i32 %60, ptr %4, align 4
  br label %61

61:                                               ; preds = %55, %54, %46, %41, %16
  %62 = load i32, ptr %4, align 4
  ret i32 %62
}