; Function Attrs: nounwind uwtable
define i32 @Abc_NtkDarSec(ptr noundef %0, ptr noundef %1, ptr noundef %2) local_unnamed_addr #1 {
  %4 = tail call ptr @Abc_NtkMiter(ptr noundef %0, ptr noundef %1, i32 noundef 0, i32 noundef 0, i32 noundef 0, i32 noundef 0) #19
  %5 = icmp eq ptr %4, null
  br i1 %5, label %6, label %7

6:                                                ; preds = %3
  tail call void (i32, ptr, ...) @Abc_Print(i32 poison, ptr noundef nonnull @.str.27)
  br label %23

7:                                                ; preds = %3
  %8 = tail call i32 @Abc_NtkMiterIsConstant(ptr noundef nonnull %4) #19
  switch i32 %8, label %17 [
    i32 0, label %9
    i32 1, label %16
  ]

9:                                                ; preds = %7
  tail call void (i32, ptr, ...) @Abc_Print(i32 poison, ptr noundef nonnull @.str.28)
  %10 = getelementptr inbounds nuw i8, ptr %2, i64 8
  %11 = load i32, ptr %10, align 4
  %12 = tail call ptr @Abc_NtkVerifyGetCleanModel(ptr noundef nonnull %4, i32 noundef %11) #19
  %13 = getelementptr inbounds nuw i8, ptr %4, i64 304
  store ptr %12, ptr %13, align 8
  %.not = icmp eq ptr %12, null
  br i1 %.not, label %15, label %14

14:                                               ; preds = %9
  tail call void @free(ptr noundef nonnull %12) #19
  store ptr null, ptr %13, align 8
  br label %15

15:                                               ; preds = %9, %14
  tail call void @Abc_NtkDelete(ptr noundef nonnull %4) #19
  br label %23

16:                                               ; preds = %7
  tail call void @Abc_NtkDelete(ptr noundef nonnull %4) #19
  tail call void (i32, ptr, ...) @Abc_Print(i32 poison, ptr noundef nonnull @.str.29)
  br label %23

17:                                               ; preds = %7
  %18 = tail call ptr @Abc_NtkToDar(ptr noundef nonnull %4, i32 noundef 0, i32 noundef 1)
  tail call void @Abc_NtkDelete(ptr noundef nonnull %4) #19
  %19 = icmp eq ptr %18, null
  br i1 %19, label %20, label %21

20:                                               ; preds = %17
  tail call void (i32, ptr, ...) @Abc_Print(i32 poison, ptr noundef nonnull @.str.30)
  br label %23

21:                                               ; preds = %17
  %22 = tail call i32 @Fra_FraigSec(ptr noundef nonnull %18, ptr noundef %2, ptr noundef null) #19
  tail call void @Aig_ManStop(ptr noundef nonnull %18) #19
  br label %23

23:                                               ; preds = %21, %20, %16, %15, %6
  %.0 = phi i32 [ -1, %6 ], [ 0, %15 ], [ 1, %16 ], [ -1, %20 ], [ %22, %21 ]
  ret i32 %.0
}